; ModuleID = '61/748.c'
source_filename = "61/748.c"
target datalayout = "e-m:e-p270:32:32-p271:32:32-p272:64:64-i64:64-f80:128-n8:16:32:64-S128"
target triple = "x86_64-pc-linux-gnu"

@.str = private unnamed_addr constant [3 x i8] c"%d\00", align 1
@.str.1 = private unnamed_addr constant [4 x i8] c"%d\0A\00", align 1

; Function Attrs: noinline nounwind uwtable
define dso_local i32 @main() #0 {
  %1 = alloca i32, align 4
  %2 = alloca i32, align 4
  %3 = alloca i32, align 4
  %4 = alloca i32, align 4
  %5 = alloca i32, align 4
  %6 = alloca [10000 x i32], align 16
  %7 = alloca [30 x i32], align 16
  store i32 0, i32* %1, align 4
  %8 = call i32 (i8*, ...) @__isoc99_scanf(i8* getelementptr inbounds ([3 x i8], [3 x i8]* @.str, i64 0, i64 0), i32* %2)
  store i32 0, i32* %3, align 4
  br label %9

9:                                                ; preds = %18, %0
  %10 = load i32, i32* %3, align 4
  %11 = load i32, i32* %2, align 4
  %12 = icmp slt i32 %10, %11
  br i1 %12, label %13, label %21

13:                                               ; preds = %9
  %14 = load i32, i32* %3, align 4
  %15 = sext i32 %14 to i64
  %16 = getelementptr inbounds [10000 x i32], [10000 x i32]* %6, i64 0, i64 %15
  %17 = call i32 (i8*, ...) @__isoc99_scanf(i8* getelementptr inbounds ([3 x i8], [3 x i8]* @.str, i64 0, i64 0), i32* %16)
  br label %18

18:                                               ; preds = %13
  %19 = load i32, i32* %3, align 4
  %20 = add nsw i32 %19, 1
  store i32 %20, i32* %3, align 4
  br label %9

21:                                               ; preds = %9
  store i32 0, i32* %3, align 4
  br label %22

22:                                               ; preds = %75, %21
  %23 = load i32, i32* %3, align 4
  %24 = load i32, i32* %2, align 4
  %25 = icmp slt i32 %23, %24
  br i1 %25, label %26, label %78

26:                                               ; preds = %22
  %27 = load i32, i32* %3, align 4
  %28 = sext i32 %27 to i64
  %29 = getelementptr inbounds [10000 x i32], [10000 x i32]* %6, i64 0, i64 %28
  %30 = load i32, i32* %29, align 4
  %31 = icmp eq i32 %30, 1
  br i1 %31, label %38, label %32

32:                                               ; preds = %26
  %33 = load i32, i32* %3, align 4
  %34 = sext i32 %33 to i64
  %35 = getelementptr inbounds [10000 x i32], [10000 x i32]* %6, i64 0, i64 %34
  %36 = load i32, i32* %35, align 4
  %37 = icmp eq i32 %36, 2
  br i1 %37, label %38, label %39

38:                                               ; preds = %32, %26
  store i32 1, i32* %5, align 4
  br label %72

39:                                               ; preds = %32
  store i32 3, i32* %4, align 4
  br label %40

40:                                               ; preds = %68, %39
  %41 = load i32, i32* %4, align 4
  %42 = load i32, i32* %3, align 4
  %43 = sext i32 %42 to i64
  %44 = getelementptr inbounds [10000 x i32], [10000 x i32]* %6, i64 0, i64 %43
  %45 = load i32, i32* %44, align 4
  %46 = icmp sle i32 %41, %45
  br i1 %46, label %47, label %71

47:                                               ; preds = %40
  %48 = getelementptr inbounds [30 x i32], [30 x i32]* %7, i64 0, i64 1
  store i32 1, i32* %48, align 4
  %49 = getelementptr inbounds [30 x i32], [30 x i32]* %7, i64 0, i64 2
  store i32 1, i32* %49, align 8
  %50 = load i32, i32* %4, align 4
  %51 = sub nsw i32 %50, 2
  %52 = sext i32 %51 to i64
  %53 = getelementptr inbounds [30 x i32], [30 x i32]* %7, i64 0, i64 %52
  %54 = load i32, i32* %53, align 4
  %55 = load i32, i32* %4, align 4
  %56 = sub nsw i32 %55, 1
  %57 = sext i32 %56 to i64
  %58 = getelementptr inbounds [30 x i32], [30 x i32]* %7, i64 0, i64 %57
  %59 = load i32, i32* %58, align 4
  %60 = add nsw i32 %54, %59
  %61 = load i32, i32* %4, align 4
  %62 = sext i32 %61 to i64
  %63 = getelementptr inbounds [30 x i32], [30 x i32]* %7, i64 0, i64 %62
  store i32 %60, i32* %63, align 4
  %64 = load i32, i32* %4, align 4
  %65 = sext i32 %64 to i64
  %66 = getelementptr inbounds [30 x i32], [30 x i32]* %7, i64 0, i64 %65
  %67 = load i32, i32* %66, align 4
  store i32 %67, i32* %5, align 4
  br label %68

68:                                               ; preds = %47
  %69 = load i32, i32* %4, align 4
  %70 = add nsw i32 %69, 1
  store i32 %70, i32* %4, align 4
  br label %40

71:                                               ; preds = %40
  br label %72

72:                                               ; preds = %71, %38
  %73 = load i32, i32* %5, align 4
  %74 = call i32 (i8*, ...) @printf(i8* getelementptr inbounds ([4 x i8], [4 x i8]* @.str.1, i64 0, i64 0), i32 %73)
  br label %75

75:                                               ; preds = %72
  %76 = load i32, i32* %3, align 4
  %77 = add nsw i32 %76, 1
  store i32 %77, i32* %3, align 4
  br label %22

78:                                               ; preds = %22
  ret i32 0
}

declare dso_local i32 @__isoc99_scanf(i8*, ...) #1

declare dso_local i32 @printf(i8*, ...) #1


!llvm.module.flags = !{!0}
!llvm.ident = !{!1}

!0 = !{i32 1, !"wchar_size", i32 4}
!1 = !{!"clang version 10.0.0-4ubuntu1 "}
